; Function Attrs: mustprogress nofree norecurse nosync nounwind willreturn memory(argmem: read) uwtable
define dso_local range(i32 0, 2) i32 @is_racy_timestamp(ptr noundef readonly captures(none) %0, ptr noundef readonly captures(none) %1) local_unnamed_addr #6 {
  %3 = getelementptr inbounds nuw i8, ptr %1, i64 52
  %4 = load i32, ptr %3, align 4, !tbaa !32
  %5 = and i32 %4, 61440
  %6 = icmp eq i32 %5, 57344
  br i1 %6, label %is_racy_stat.exit, label %7

7:                                                ; preds = %2
  %8 = getelementptr i8, ptr %0, i64 48
  %.val = load i32, ptr %8, align 8, !tbaa !49
  %.not.i = icmp eq i32 %.val, 0
  br i1 %.not.i, label %is_racy_stat.exit, label %9

9:                                                ; preds = %7
  %10 = getelementptr inbounds nuw i8, ptr %1, i64 24
  %11 = load i32, ptr %10, align 4, !tbaa !50
  %12 = icmp ule i32 %.val, %11
  %13 = zext i1 %12 to i32
  br label %is_racy_stat.exit

is_racy_stat.exit:                                ; preds = %9, %7, %2
  %14 = phi i32 [ 0, %2 ], [ 0, %7 ], [ %13, %9 ]
  ret i32 %14
}